target datalayout = "e-m:e-p270:32:32-p271:32:32-p272:64:64-i64:64-i128:128-f80:128-n8:16:32:64-S128"
target triple = "x86_64-pc-linux-gnu"

%struct.Curl_cftype = type { ptr, i32, i32, ptr, ptr, ptr, ptr, ptr, ptr, ptr, ptr, ptr, ptr, ptr, ptr, ptr }
%struct.curl_trc_feat = type { ptr, i32 }
%struct.Curl_easy = type { i32, i64, i64, ptr, %struct.Curl_llist_node, %struct.Curl_llist_node, i32, i32, %struct.Curl_message, %struct.easy_pollset, %struct.Names, ptr, ptr, ptr, %struct.SingleRequest, %struct.UserDefined, ptr, ptr, %struct.Progress, %struct.UrlState, ptr, %struct.PureInfo, %struct.curl_tlssessioninfo }
%struct.Curl_llist_node = type { ptr, ptr, ptr, ptr }
%struct.Curl_message = type { %struct.Curl_llist_node, %struct.CURLMsg }
%struct.CURLMsg = type { i32, ptr, %union.anon }
%union.anon = type { ptr }
%struct.easy_pollset = type { [5 x i32], i32, [5 x i8] }
%struct.Names = type { ptr, i32 }
%struct.SingleRequest = type <{ i64, i64, i64, i64, %struct.curltime, i32, i32, i32, i32, i64, i32, i32, i32, i32, ptr, ptr, %struct.bufq, i64, i64, ptr, ptr, %union.anon.0, ptr, i8, i32, [3 x i8] }>
%struct.curltime = type { i64, i32 }
%struct.bufq = type { ptr, ptr, ptr, ptr, i64, i64, i64, i32 }
%union.anon.0 = type { ptr }
%struct.UserDefined = type <{ ptr, ptr, ptr, ptr, ptr, ptr, i16, [6 x i8], i64, i64, i64, ptr, ptr, i64, i16, i16, [4 x i8], ptr, ptr, ptr, ptr, ptr, ptr, ptr, ptr, ptr, ptr, ptr, ptr, ptr, ptr, ptr, ptr, ptr, ptr, ptr, ptr, ptr, ptr, ptr, i32, i32, i32, i32, i32, [4 x i8], i64, i64, i64, i64, i64, i64, i64, i64, ptr, ptr, %struct.curl_mimepart, ptr, ptr, i64, i8, i8, i8, [5 x i8], %struct.ssl_config_data, %struct.ssl_config_data, ptr, i16, i8, i8, [4 x i8], %struct.ssl_general_config, i32, i32, i32, [4 x i8], ptr, ptr, i8, [7 x i8], i64, i8, i8, i8, i8, i32, ptr, ptr, ptr, i8, i8, [2 x i8], i32, [63 x ptr], [8 x ptr], i32, i32, i32, [4 x i8], ptr, ptr, ptr, ptr, ptr, i8, [3 x i8], i32, i32, i32, i64, %struct.Curl_data_priority, ptr, ptr, i64, ptr, i64, ptr, ptr, ptr, i8, [3 x i8], i32, i8, i8, i64, [6 x i8] }>
%struct.curl_mimepart = type { ptr, ptr, i32, i32, ptr, ptr, ptr, ptr, ptr, ptr, ptr, ptr, ptr, ptr, ptr, i64, %struct.mime_state, ptr, %struct.mime_encoder_state, i64 }
%struct.mime_state = type { i32, ptr, i64 }
%struct.mime_encoder_state = type { i64, i64, i64, [256 x i8] }
%struct.ssl_config_data = type { %struct.ssl_primary_config, i64, ptr, ptr, ptr, ptr, ptr, ptr, ptr, i16 }
%struct.ssl_primary_config = type { ptr, ptr, ptr, ptr, ptr, ptr, ptr, ptr, ptr, ptr, ptr, ptr, i8, i32, i8, i8 }
%struct.ssl_general_config = type { i64, i32 }
%struct.Curl_data_priority = type { ptr, ptr, i32, i8 }
%struct.Progress = type { i64, %struct.pgrs_dir, %struct.pgrs_dir, i64, i64, i32, i32, i64, i64, i64, i64, i64, i64, i64, i64, i64, %struct.curltime, %struct.curltime, %struct.curltime, %struct.curltime, [6 x i64], [6 x %struct.curltime], i32, i8 }
%struct.pgrs_dir = type { i64, i64, i64, %struct.pgrs_measure }
%struct.pgrs_measure = type { %struct.curltime, i64 }
%struct.UrlState = type { %struct.curltime, i64, i64, %struct.dynbuf, ptr, i64, ptr, i32, i32, i32, ptr, i64, i32, i64, i32, ptr, %struct.digestdata, %struct.digestdata, %struct.auth, %struct.auth, %struct.Curl_async, ptr, %struct.curltime, %struct.Curl_tree, %struct.Curl_llist, [15 x %struct.time_node], ptr, ptr, i64, i64, %struct.Curl_data_priority, ptr, ptr, ptr, %struct.urlpieces, ptr, ptr, ptr, ptr, ptr, i64, %struct.dynbuf, %struct.Curl_llist, [2 x %struct.curl_header], ptr, i32, ptr, ptr, %struct.store_netrc, %struct.dynamically_allocated_data, i8, i8, i8, i8, i32 }
%struct.digestdata = type { ptr, ptr, ptr, ptr, ptr, ptr, i32, i8, i8 }
%struct.auth = type { i64, i64, i64, i8 }
%struct.Curl_async = type { ptr, ptr, ptr, ptr, i32, i32, i8 }
%struct.Curl_tree = type { ptr, ptr, ptr, ptr, %struct.curltime, ptr }
%struct.time_node = type { %struct.Curl_llist_node, %struct.curltime, i32 }
%struct.urlpieces = type { ptr, ptr, ptr, ptr, ptr, ptr, ptr, ptr }
%struct.dynbuf = type { ptr, i64, i64, i64 }
%struct.Curl_llist = type { ptr, ptr, ptr, i64 }
%struct.curl_header = type { ptr, ptr, i64, i64, i32, ptr }
%struct.store_netrc = type { %struct.dynbuf, ptr, i8 }
%struct.dynamically_allocated_data = type { ptr, ptr, ptr, ptr, ptr, ptr, ptr, ptr, ptr, ptr, ptr, ptr, ptr }
%struct.PureInfo = type { i32, i32, i32, i64, i64, i64, i64, i64, ptr, ptr, i64, i32, %struct.ip_quadruple, i32, ptr, i32, %struct.curl_certinfo, i32, i8 }
%struct.ip_quadruple = type { [46 x i8], [46 x i8], i32, i32 }
%struct.curl_certinfo = type { i32, ptr }
%struct.curl_tlssessioninfo = type { i32, ptr }
%struct.__va_list_tag = type { i32, i32, ptr, ptr }
%struct.Curl_cfilter = type { ptr, ptr, ptr, ptr, i32, i8 }

@.str = private unnamed_addr constant [6 x i8] c"[%s] \00", align 1
@.str.1 = private unnamed_addr constant [9 x i8] c"[%s-%d] \00", align 1

; Function Attrs: nounwind uwtable
define dso_local void @Curl_trc_cf_infof(ptr noundef %0, ptr noundef %1, ptr noundef %2, ...) #0 {
  %4 = alloca ptr, align 8
  %5 = alloca ptr, align 8
  %6 = alloca ptr, align 8
  %7 = alloca [1 x %struct.__va_list_tag], align 16
  %8 = alloca i32, align 4
  %9 = alloca [2050 x i8], align 16
  store ptr %0, ptr %4, align 8, !tbaa !4
  store ptr %1, ptr %5, align 8, !tbaa !96
  store ptr %2, ptr %6, align 8, !tbaa !11
  br label %10

10:                                               ; preds = %3
  br label %11

11:                                               ; preds = %10
  %12 = load ptr, ptr %4, align 8, !tbaa !4
  %13 = icmp ne ptr %12, null
  br i1 %13, label %14, label %136

14:                                               ; preds = %11
  %15 = load ptr, ptr %4, align 8, !tbaa !4
  %16 = getelementptr inbounds nuw %struct.Curl_easy, ptr %15, i32 0, i32 15
  %17 = getelementptr inbounds nuw %struct.UserDefined, ptr %16, i32 0, i32 124
  %18 = load i64, ptr %17, align 2
  %19 = lshr i64 %18, 27
  %20 = and i64 %19, 1
  %21 = trunc i64 %20 to i32
  %22 = icmp ne i32 %21, 0
  br i1 %22, label %23, label %136

23:                                               ; preds = %14
  %24 = load ptr, ptr %4, align 8, !tbaa !4
  %25 = getelementptr inbounds nuw %struct.Curl_easy, ptr %24, i32 0, i32 19
  %26 = getelementptr inbounds nuw %struct.UrlState, ptr %25, i32 0, i32 47
  %27 = load ptr, ptr %26, align 8, !tbaa !89
  %28 = icmp ne ptr %27, null
  br i1 %28, label %29, label %37

29:                                               ; preds = %23
  %30 = load ptr, ptr %4, align 8, !tbaa !4
  %31 = getelementptr inbounds nuw %struct.Curl_easy, ptr %30, i32 0, i32 19
  %32 = getelementptr inbounds nuw %struct.UrlState, ptr %31, i32 0, i32 47
  %33 = load ptr, ptr %32, align 8, !tbaa !89
  %34 = getelementptr inbounds nuw %struct.curl_trc_feat, ptr %33, i32 0, i32 1
  %35 = load i32, ptr %34, align 8, !tbaa !90
  %36 = icmp sge i32 %35, 1
  br i1 %36, label %37, label %136

37:                                               ; preds = %29, %23
  %38 = load ptr, ptr %5, align 8, !tbaa !96
  %39 = icmp ne ptr %38, null
  br i1 %39, label %40, label %136

40:                                               ; preds = %37
  %41 = load ptr, ptr %5, align 8, !tbaa !96
  %42 = getelementptr inbounds nuw %struct.Curl_cfilter, ptr %41, i32 0, i32 0
  %43 = load ptr, ptr %42, align 8, !tbaa !98
  %44 = getelementptr inbounds nuw %struct.Curl_cftype, ptr %43, i32 0, i32 2
  %45 = load i32, ptr %44, align 4, !tbaa !101
  %46 = icmp sge i32 %45, 1
  br i1 %46, label %47, label %136

47:                                               ; preds = %40
  call void @llvm.lifetime.start.p0(i64 24, ptr %7) #5
  call void @llvm.lifetime.start.p0(i64 4, ptr %8) #5
  store i32 0, ptr %8, align 4, !tbaa !9
  call void @llvm.lifetime.start.p0(i64 2050, ptr %9) #5
  %48 = load ptr, ptr %4, align 8, !tbaa !4
  %49 = getelementptr inbounds nuw %struct.Curl_easy, ptr %48, i32 0, i32 19
  %50 = getelementptr inbounds nuw %struct.UrlState, ptr %49, i32 0, i32 47
  %51 = load ptr, ptr %50, align 8, !tbaa !89
  %52 = icmp ne ptr %51, null
  br i1 %52, label %53, label %70

53:                                               ; preds = %47
  %54 = getelementptr inbounds [2050 x i8], ptr %9, i64 0, i64 0
  %55 = load i32, ptr %8, align 4, !tbaa !9
  %56 = sext i32 %55 to i64
  %57 = getelementptr inbounds i8, ptr %54, i64 %56
  %58 = load i32, ptr %8, align 4, !tbaa !9
  %59 = sub nsw i32 2048, %58
  %60 = sext i32 %59 to i64
  %61 = load ptr, ptr %4, align 8, !tbaa !4
  %62 = getelementptr inbounds nuw %struct.Curl_easy, ptr %61, i32 0, i32 19
  %63 = getelementptr inbounds nuw %struct.UrlState, ptr %62, i32 0, i32 47
  %64 = load ptr, ptr %63, align 8, !tbaa !89
  %65 = getelementptr inbounds nuw %struct.curl_trc_feat, ptr %64, i32 0, i32 0
  %66 = load ptr, ptr %65, align 8, !tbaa !95
  %67 = call i32 (ptr, i64, ptr, ...) @curl_msnprintf(ptr noundef %57, i64 noundef %60, ptr noundef @.str, ptr noundef %66)
  %68 = load i32, ptr %8, align 4, !tbaa !9
  %69 = add nsw i32 %68, %67
  store i32 %69, ptr %8, align 4, !tbaa !9
  br label %70

70:                                               ; preds = %53, %47
  %71 = load ptr, ptr %5, align 8, !tbaa !96
  %72 = getelementptr inbounds nuw %struct.Curl_cfilter, ptr %71, i32 0, i32 4
  %73 = load i32, ptr %72, align 8, !tbaa !103
  %74 = icmp ne i32 %73, 0
  br i1 %74, label %75, label %94

75:                                               ; preds = %70
  %76 = getelementptr inbounds [2050 x i8], ptr %9, i64 0, i64 0
  %77 = load i32, ptr %8, align 4, !tbaa !9
  %78 = sext i32 %77 to i64
  %79 = getelementptr inbounds i8, ptr %76, i64 %78
  %80 = load i32, ptr %8, align 4, !tbaa !9
  %81 = sub nsw i32 2048, %80
  %82 = sext i32 %81 to i64
  %83 = load ptr, ptr %5, align 8, !tbaa !96
  %84 = getelementptr inbounds nuw %struct.Curl_cfilter, ptr %83, i32 0, i32 0
  %85 = load ptr, ptr %84, align 8, !tbaa !98
  %86 = getelementptr inbounds nuw %struct.Curl_cftype, ptr %85, i32 0, i32 0
  %87 = load ptr, ptr %86, align 8, !tbaa !104
  %88 = load ptr, ptr %5, align 8, !tbaa !96
  %89 = getelementptr inbounds nuw %struct.Curl_cfilter, ptr %88, i32 0, i32 4
  %90 = load i32, ptr %89, align 8, !tbaa !103
  %91 = call i32 (ptr, i64, ptr, ...) @curl_msnprintf(ptr noundef %79, i64 noundef %82, ptr noundef @.str.1, ptr noundef %87, i32 noundef %90)
  %92 = load i32, ptr %8, align 4, !tbaa !9
  %93 = add nsw i32 %92, %91
  store i32 %93, ptr %8, align 4, !tbaa !9
  br label %110

94:                                               ; preds = %70
  %95 = getelementptr inbounds [2050 x i8], ptr %9, i64 0, i64 0
  %96 = load i32, ptr %8, align 4, !tbaa !9
  %97 = sext i32 %96 to i64
  %98 = getelementptr inbounds i8, ptr %95, i64 %97
  %99 = load i32, ptr %8, align 4, !tbaa !9
  %100 = sub nsw i32 2048, %99
  %101 = sext i32 %100 to i64
  %102 = load ptr, ptr %5, align 8, !tbaa !96
  %103 = getelementptr inbounds nuw %struct.Curl_cfilter, ptr %102, i32 0, i32 0
  %104 = load ptr, ptr %103, align 8, !tbaa !98
  %105 = getelementptr inbounds nuw %struct.Curl_cftype, ptr %104, i32 0, i32 0
  %106 = load ptr, ptr %105, align 8, !tbaa !104
  %107 = call i32 (ptr, i64, ptr, ...) @curl_msnprintf(ptr noundef %98, i64 noundef %101, ptr noundef @.str, ptr noundef %106)
  %108 = load i32, ptr %8, align 4, !tbaa !9
  %109 = add nsw i32 %108, %107
  store i32 %109, ptr %8, align 4, !tbaa !9
  br label %110

110:                                              ; preds = %94, %75
  %111 = getelementptr inbounds [1 x %struct.__va_list_tag], ptr %7, i64 0, i64 0
  call void @llvm.va_start.p0(ptr %111)
  %112 = getelementptr inbounds [2050 x i8], ptr %9, i64 0, i64 0
  %113 = load i32, ptr %8, align 4, !tbaa !9
  %114 = sext i32 %113 to i64
  %115 = getelementptr inbounds i8, ptr %112, i64 %114
  %116 = load i32, ptr %8, align 4, !tbaa !9
  %117 = sub nsw i32 2048, %116
  %118 = sext i32 %117 to i64
  %119 = load ptr, ptr %6, align 8, !tbaa !11
  %120 = getelementptr inbounds [1 x %struct.__va_list_tag], ptr %7, i64 0, i64 0
  %121 = call i32 @curl_mvsnprintf(ptr noundef %115, i64 noundef %118, ptr noundef %119, ptr noundef %120)
  %122 = load i32, ptr %8, align 4, !tbaa !9
  %123 = add nsw i32 %122, %121
  store i32 %123, ptr %8, align 4, !tbaa !9
  %124 = getelementptr inbounds [1 x %struct.__va_list_tag], ptr %7, i64 0, i64 0
  call void @llvm.va_end.p0(ptr %124)
  %125 = load i32, ptr %8, align 4, !tbaa !9
  %126 = add nsw i32 %125, 1
  store i32 %126, ptr %8, align 4, !tbaa !9
  %127 = sext i32 %125 to i64
  %128 = getelementptr inbounds [2050 x i8], ptr %9, i64 0, i64 %127
  store i8 10, ptr %128, align 1, !tbaa !88
  %129 = load i32, ptr %8, align 4, !tbaa !9
  %130 = sext i32 %129 to i64
  %131 = getelementptr inbounds [2050 x i8], ptr %9, i64 0, i64 %130
  store i8 0, ptr %131, align 1, !tbaa !88
  %132 = load ptr, ptr %4, align 8, !tbaa !4
  %133 = getelementptr inbounds [2050 x i8], ptr %9, i64 0, i64 0
  %134 = load i32, ptr %8, align 4, !tbaa !9
  %135 = sext i32 %134 to i64
  call void @Curl_debug(ptr noundef %132, i32 noundef 0, ptr noundef %133, i64 noundef %135)
  call void @llvm.lifetime.end.p0(i64 2050, ptr %9) #5
  call void @llvm.lifetime.end.p0(i64 4, ptr %8) #5
  call void @llvm.lifetime.end.p0(i64 24, ptr %7) #5
  br label %136

136:                                              ; preds = %110, %40, %37, %29, %14, %11
  ret void
}